; Function Attrs: mustprogress uwtable
define internal void @_ZNK6google8protobuf8compiler3cpp12_GLOBAL__N_115SingularMessage21GenerateIsInitializedEPNS0_2io7PrinterE(ptr nocapture noundef nonnull readonly align 8 dereferenceable(106) %this, ptr noundef %p) unnamed_addr #3 align 2 personality ptr @__gxx_personality_v0 {
entry:
  %has_required_ = getelementptr inbounds i8, ptr %this, i64 104
  %0 = load i8, ptr %has_required_, align 8
  %1 = and i8 %0, 1
  %tobool.not = icmp eq i8 %1, 0
  br i1 %tobool.not, label %if.end7, label %if.end

if.end:                                           ; preds = %entry
  %field_ = getelementptr inbounds i8, ptr %this, i64 88
  %2 = load ptr, ptr %field_, align 8
  %call = tail call noundef zeroext i1 @_ZN6google8protobuf8internal3cpp9HasHasbitEPKNS0_15FieldDescriptorE(ptr noundef %2)
  br i1 %call, label %if.then2, label %if.else

if.then2:                                         ; preds = %if.end
  tail call void @_ZN6google8protobuf2io7Printer4EmitEN4absl12lts_202308024SpanIKNS2_3SubEEESt17basic_string_viewIcSt11char_traitsIcEENS2_14SourceLocationE(ptr noundef nonnull align 8 dereferenceable(256) %p, ptr null, i64 0, i64 100, ptr nonnull @.str.72)
  br label %if.end7

if.else:                                          ; preds = %if.end
  tail call void @_ZN6google8protobuf2io7Printer4EmitEN4absl12lts_202308024SpanIKNS2_3SubEEESt17basic_string_viewIcSt11char_traitsIcEENS2_14SourceLocationE(ptr noundef nonnull align 8 dereferenceable(256) %p, ptr null, i64 0, i64 103, ptr nonnull @.str.73)
  br label %if.end7

if.end7:                                          ; preds = %entry, %if.else, %if.then2
  ret void
}